target datalayout = "e-m:e-p270:32:32-p271:32:32-p272:64:64-i64:64-i128:128-f80:128-n8:16:32:64-S128"
target triple = "x86_64-pc-linux-gnu"

%struct._packet_info = type { ptr, ptr, i32, i32, %struct.nstime_t, %struct.nstime_t, %struct.nstime_t, i32, ptr, ptr, ptr, ptr, %struct._address, %struct._address, %struct._address, %struct._address, %struct._address, %struct._address, i32, ptr, i32, %struct.anon, i32, i32, i32, i32, ptr, i32, ptr, ptr, i16, i16, i32, i32, i16, i32, i32, ptr, ptr, ptr, i8, i8, i16, i16, i16, i32, i16, i16, ptr, ptr, ptr, ptr, ptr, i32 }
%struct.nstime_t = type { i64, i32 }
%struct._address = type { i32, i32, ptr, ptr }
%struct.anon = type { i8, [3 x i8] }

@.str.975 = private unnamed_addr constant [74 x i8] c"(ip.addr eq %s and ip.addr eq %s) and (tcp.port eq %d and tcp.port eq %d)\00", align 1
@.str.976 = private unnamed_addr constant [78 x i8] c"(ipv6.addr eq %s and ipv6.addr eq %s) and (tcp.port eq %d and tcp.port eq %d)\00", align 1

; Function Attrs: nounwind uwtable
define internal ptr @tcp_build_filter(ptr noundef %0, ptr noundef %1) #0 {
  %3 = alloca ptr, align 8
  %4 = alloca ptr, align 8
  %5 = alloca ptr, align 8
  store ptr %0, ptr %4, align 8
  store ptr %1, ptr %5, align 8
  %6 = load ptr, ptr %4, align 8
  %7 = getelementptr inbounds %struct._packet_info, ptr %6, i32 0, i32 14
  %8 = getelementptr inbounds %struct._address, ptr %7, i32 0, i32 0
  %9 = load i32, ptr %8, align 8
  %10 = icmp eq i32 %9, 2
  br i1 %10, label %11, label %37

11:                                               ; preds = %2
  %12 = load ptr, ptr %4, align 8
  %13 = getelementptr inbounds %struct._packet_info, ptr %12, i32 0, i32 15
  %14 = getelementptr inbounds %struct._address, ptr %13, i32 0, i32 0
  %15 = load i32, ptr %14, align 8
  %16 = icmp eq i32 %15, 2
  br i1 %16, label %17, label %37

17:                                               ; preds = %11
  %18 = load ptr, ptr %4, align 8
  %19 = getelementptr inbounds %struct._packet_info, ptr %18, i32 0, i32 50
  %20 = load ptr, ptr %19, align 8
  %21 = load ptr, ptr %4, align 8
  %22 = getelementptr inbounds %struct._packet_info, ptr %21, i32 0, i32 14
  %23 = call ptr @address_to_str(ptr noundef %20, ptr noundef %22)
  %24 = load ptr, ptr %4, align 8
  %25 = getelementptr inbounds %struct._packet_info, ptr %24, i32 0, i32 50
  %26 = load ptr, ptr %25, align 8
  %27 = load ptr, ptr %4, align 8
  %28 = getelementptr inbounds %struct._packet_info, ptr %27, i32 0, i32 15
  %29 = call ptr @address_to_str(ptr noundef %26, ptr noundef %28)
  %30 = load ptr, ptr %4, align 8
  %31 = getelementptr inbounds %struct._packet_info, ptr %30, i32 0, i32 23
  %32 = load i32, ptr %31, align 4
  %33 = load ptr, ptr %4, align 8
  %34 = getelementptr inbounds %struct._packet_info, ptr %33, i32 0, i32 24
  %35 = load i32, ptr %34, align 8
  %36 = call noalias ptr (ptr, ptr, ...) @wmem_strdup_printf(ptr noundef null, ptr noundef @.str.975, ptr noundef %23, ptr noundef %29, i32 noundef %32, i32 noundef %35)
  store ptr %36, ptr %3, align 8
  br label %70

37:                                               ; preds = %11, %2
  %38 = load ptr, ptr %4, align 8
  %39 = getelementptr inbounds %struct._packet_info, ptr %38, i32 0, i32 14
  %40 = getelementptr inbounds %struct._address, ptr %39, i32 0, i32 0
  %41 = load i32, ptr %40, align 8
  %42 = icmp eq i32 %41, 3
  br i1 %42, label %43, label %69

43:                                               ; preds = %37
  %44 = load ptr, ptr %4, align 8
  %45 = getelementptr inbounds %struct._packet_info, ptr %44, i32 0, i32 15
  %46 = getelementptr inbounds %struct._address, ptr %45, i32 0, i32 0
  %47 = load i32, ptr %46, align 8
  %48 = icmp eq i32 %47, 3
  br i1 %48, label %49, label %69

49:                                               ; preds = %43
  %50 = load ptr, ptr %4, align 8
  %51 = getelementptr inbounds %struct._packet_info, ptr %50, i32 0, i32 50
  %52 = load ptr, ptr %51, align 8
  %53 = load ptr, ptr %4, align 8
  %54 = getelementptr inbounds %struct._packet_info, ptr %53, i32 0, i32 14
  %55 = call ptr @address_to_str(ptr noundef %52, ptr noundef %54)
  %56 = load ptr, ptr %4, align 8
  %57 = getelementptr inbounds %struct._packet_info, ptr %56, i32 0, i32 50
  %58 = load ptr, ptr %57, align 8
  %59 = load ptr, ptr %4, align 8
  %60 = getelementptr inbounds %struct._packet_info, ptr %59, i32 0, i32 15
  %61 = call ptr @address_to_str(ptr noundef %58, ptr noundef %60)
  %62 = load ptr, ptr %4, align 8
  %63 = getelementptr inbounds %struct._packet_info, ptr %62, i32 0, i32 23
  %64 = load i32, ptr %63, align 4
  %65 = load ptr, ptr %4, align 8
  %66 = getelementptr inbounds %struct._packet_info, ptr %65, i32 0, i32 24
  %67 = load i32, ptr %66, align 8
  %68 = call noalias ptr (ptr, ptr, ...) @wmem_strdup_printf(ptr noundef null, ptr noundef @.str.976, ptr noundef %55, ptr noundef %61, i32 noundef %64, i32 noundef %67)
  store ptr %68, ptr %3, align 8
  br label %70

69:                                               ; preds = %43, %37
  store ptr null, ptr %3, align 8
  br label %70

70:                                               ; preds = %69, %49, %17
  %71 = load ptr, ptr %3, align 8
  ret ptr %71
}